target datalayout = "e-m:e-p270:32:32-p271:32:32-p272:64:64-i64:64-i128:128-f80:128-n8:16:32:64-S128"
target triple = "x86_64-pc-linux-gnu"

%struct.SynthFilterContext = type { ptr, ptr, ptr, ptr }

; Function Attrs: nounwind uwtable
define internal void @sub_qmf32_fixed_c(ptr noundef %0, ptr noundef %1, ptr noundef %2, ptr noundef %3, ptr noundef %4, ptr noundef %5, ptr noundef %6, ptr noundef %7, ptr noundef %8, i64 noundef %9) #1 {
  %11 = alloca ptr, align 8
  %12 = alloca ptr, align 8
  %13 = alloca ptr, align 8
  %14 = alloca ptr, align 8
  %15 = alloca ptr, align 8
  %16 = alloca ptr, align 8
  %17 = alloca ptr, align 8
  %18 = alloca ptr, align 8
  %19 = alloca ptr, align 8
  %20 = alloca i64, align 8
  %21 = alloca [32 x i32], align 16
  %22 = alloca ptr, align 8
  %23 = alloca i32, align 4
  %24 = alloca i32, align 4
  store ptr %0, ptr %11, align 8, !tbaa !47
  store ptr %1, ptr %12, align 8, !tbaa !64
  store ptr %2, ptr %13, align 8, !tbaa !28
  store ptr %3, ptr %14, align 8, !tbaa !25
  store ptr %4, ptr %15, align 8, !tbaa !25
  store ptr %5, ptr %16, align 8, !tbaa !28
  store ptr %6, ptr %17, align 8, !tbaa !28
  store ptr %7, ptr %18, align 8, !tbaa !28
  store ptr %8, ptr %19, align 8, !tbaa !28
  store i64 %9, ptr %20, align 8, !tbaa !32
  call void @llvm.lifetime.start.p0(i64 128, ptr %21) #7
  call void @llvm.lifetime.start.p0(i64 8, ptr %22) #7
  %25 = getelementptr inbounds [32 x i32], ptr %21, i64 0, i64 0
  store ptr %25, ptr %22, align 8, !tbaa !28
  call void @llvm.lifetime.start.p0(i64 4, ptr %23) #7
  call void @llvm.lifetime.start.p0(i64 4, ptr %24) #7
  store i32 0, ptr %24, align 4, !tbaa !34
  br label %26

26:                                               ; preds = %65, %10
  %27 = load i32, ptr %24, align 4, !tbaa !34
  %28 = sext i32 %27 to i64
  %29 = load i64, ptr %20, align 8, !tbaa !32
  %30 = icmp slt i64 %28, %29
  br i1 %30, label %31, label %68

31:                                               ; preds = %26
  store i32 0, ptr %23, align 4, !tbaa !34
  br label %32

32:                                               ; preds = %49, %31
  %33 = load i32, ptr %23, align 4, !tbaa !34
  %34 = icmp slt i32 %33, 32
  br i1 %34, label %35, label %52

35:                                               ; preds = %32
  %36 = load ptr, ptr %14, align 8, !tbaa !25
  %37 = load i32, ptr %23, align 4, !tbaa !34
  %38 = sext i32 %37 to i64
  %39 = getelementptr inbounds ptr, ptr %36, i64 %38
  %40 = load ptr, ptr %39, align 8, !tbaa !28
  %41 = load i32, ptr %24, align 4, !tbaa !34
  %42 = sext i32 %41 to i64
  %43 = getelementptr inbounds i32, ptr %40, i64 %42
  %44 = load i32, ptr %43, align 4, !tbaa !34
  %45 = load ptr, ptr %22, align 8, !tbaa !28
  %46 = load i32, ptr %23, align 4, !tbaa !34
  %47 = sext i32 %46 to i64
  %48 = getelementptr inbounds i32, ptr %45, i64 %47
  store i32 %44, ptr %48, align 4, !tbaa !34
  br label %49

49:                                               ; preds = %35
  %50 = load i32, ptr %23, align 4, !tbaa !34
  %51 = add nsw i32 %50, 1
  store i32 %51, ptr %23, align 4, !tbaa !34
  br label %32, !llvm.loop !66

52:                                               ; preds = %32
  %53 = load ptr, ptr %11, align 8, !tbaa !47
  %54 = getelementptr inbounds nuw %struct.SynthFilterContext, ptr %53, i32 0, i32 2
  %55 = load ptr, ptr %54, align 8, !tbaa !67
  %56 = load ptr, ptr %12, align 8, !tbaa !64
  %57 = load ptr, ptr %16, align 8, !tbaa !28
  %58 = load ptr, ptr %17, align 8, !tbaa !28
  %59 = load ptr, ptr %18, align 8, !tbaa !28
  %60 = load ptr, ptr %19, align 8, !tbaa !28
  %61 = load ptr, ptr %13, align 8, !tbaa !28
  %62 = load ptr, ptr %22, align 8, !tbaa !28
  call void %55(ptr noundef %56, ptr noundef %57, ptr noundef %58, ptr noundef %59, ptr noundef %60, ptr noundef %61, ptr noundef %62)
  %63 = load ptr, ptr %13, align 8, !tbaa !28
  %64 = getelementptr inbounds i32, ptr %63, i64 32
  store ptr %64, ptr %13, align 8, !tbaa !28
  br label %65

65:                                               ; preds = %52
  %66 = load i32, ptr %24, align 4, !tbaa !34
  %67 = add nsw i32 %66, 1
  store i32 %67, ptr %24, align 4, !tbaa !34
  br label %26, !llvm.loop !68

68:                                               ; preds = %26
  call void @llvm.lifetime.end.p0(i64 4, ptr %24) #7
  call void @llvm.lifetime.end.p0(i64 4, ptr %23) #7
  call void @llvm.lifetime.end.p0(i64 8, ptr %22) #7
  call void @llvm.lifetime.end.p0(i64 128, ptr %21) #7
  ret void
}