; Function Attrs: nounwind uwtable
define internal void @sub_qmf32_fixed_c(ptr noundef readonly captures(none) %0, ptr noundef %1, ptr noundef %2, ptr noundef readonly captures(none) %3, ptr readnone captures(none) %4, ptr noundef %5, ptr noundef %6, ptr noundef %7, ptr noundef %8, i64 noundef %9) #4 {
  %11 = alloca [32 x i32], align 16
  call void @llvm.lifetime.start.p0(i64 128, ptr nonnull %11) #10
  %12 = icmp sgt i64 %9, 0
  br i1 %12, label %.preheader.lr.ph, label %._crit_edge

.preheader.lr.ph:                                 ; preds = %10
  %13 = getelementptr inbounds nuw i8, ptr %0, i64 16
  br label %.preheader

.preheader:                                       ; preds = %.preheader.lr.ph, %20
  %indvars.iv25 = phi i64 [ 0, %.preheader.lr.ph ], [ %indvars.iv.next26, %20 ]
  %.01922 = phi ptr [ %2, %.preheader.lr.ph ], [ %22, %20 ]
  br label %14

14:                                               ; preds = %.preheader, %14
  %indvars.iv = phi i64 [ 0, %.preheader ], [ %indvars.iv.next, %14 ]
  %15 = getelementptr inbounds nuw ptr, ptr %3, i64 %indvars.iv
  %16 = load ptr, ptr %15, align 8, !tbaa !25
  %17 = getelementptr inbounds nuw i32, ptr %16, i64 %indvars.iv25
  %18 = load i32, ptr %17, align 4, !tbaa !23
  %19 = getelementptr inbounds nuw i32, ptr %11, i64 %indvars.iv
  store i32 %18, ptr %19, align 4, !tbaa !23
  %indvars.iv.next = add nuw nsw i64 %indvars.iv, 1
  %exitcond.not = icmp eq i64 %indvars.iv.next, 32
  br i1 %exitcond.not, label %20, label %14, !llvm.loop !52

20:                                               ; preds = %14
  %21 = load ptr, ptr %13, align 8, !tbaa !53
  call void %21(ptr noundef %1, ptr noundef %5, ptr noundef %6, ptr noundef %7, ptr noundef %8, ptr noundef %.01922, ptr noundef nonnull %11) #10
  %22 = getelementptr inbounds nuw i8, ptr %.01922, i64 128
  %indvars.iv.next26 = add nuw nsw i64 %indvars.iv25, 1
  %exitcond28.not = icmp eq i64 %indvars.iv.next26, %9
  br i1 %exitcond28.not, label %._crit_edge, label %.preheader, !llvm.loop !54

._crit_edge:                                      ; preds = %20, %10
  call void @llvm.lifetime.end.p0(i64 128, ptr nonnull %11) #10
  ret void
}